(dp1
S'OriginalConfig'
p2
ccopy_reg
_reconstructor
p3
(cWMCore.Configuration
Configuration
p4
c__builtin__
object
p5
NtRp6
(dp7
S'Site'
p8
g3
(cWMCore.Configuration
ConfigSection
p9
g5
NtRp10
(dp11
S'_internal_skipChecks'
p12
I00
sS'_internal_documentation'
p13
S''
sS'_internal_settings'
p14
c__builtin__
set
p15
((lp16
S'blacklist'
p17
aS'storageSite'
p18
atRp19
sS'_internal_name'
p20
g8
sS'_internal_docstrings'
p21
(dp22
sg17
(lp23
S'T3_UK_London_RHUL'
p24
aS'T3_UK_SGrid_Oxford'
p25
aS'T3_US_Rice'
p26
asS'_internal_children'
p27
g15
((ltRp28
sg18
S'T2_KR_KNU'
p29
sS'_internal_parent_ref'
p30
NsbsS'_internal_sections'
p31
(lp32
S'General'
p33
aS'JobType'
p34
aS'Data'
p35
ag8
aS'User'
p36
aS'Debug'
p37
asg33
g3
(g9
g5
NtRp38
(dp39
g12
I00
sg13
S''
sg14
g15
((lp40
S'workArea'
p41
aS'requestName'
p42
atRp43
sg20
g33
sg21
(dp44
sg27
g15
((ltRp45
sg42
S'crab_ISR_GEN_Ntupler_10to50_electron_v2'
p46
sg30
Nsg41
S'crab_projects'
p47
sbsS'_internal_webapps'
p48
(lp49
sg36
g3
(g9
g5
NtRp50
(dp51
g12
I00
sg13
S''
sg14
g15
((ltRp52
sg20
g36
sg21
(dp53
sg27
g15
((ltRp54
sg30
NsbsS'_internal_components'
p55
(lp56
sg37
g3
(g9
g5
NtRp57
(dp58
g12
I00
sg13
S''
sg14
g15
((ltRp59
sg20
g37
sg21
(dp60
sg27
g15
((ltRp61
sg30
Nsbsg35
g3
(g9
g5
NtRp62
(dp63
S'inputDataset'
p64
S'/DYJetsToLL_M-10to50_TuneCUETP8M1_13TeV-amcatnloFXFX-pythia8/RunIISummer16DR80Premix-PUMoriond17_80X_mcRun2_asymptotic_2016_TrancheIV_v6-v1/AODSIM'
p65
sg12
I00
sS'splitting'
p66
S'LumiBased'
p67
sS'unitsPerJob'
p68
I20
sg13
S''
sg14
g15
((lp69
g64
aS'publication'
p70
ag68
aS'inputDBS'
p71
ag66
aS'useParent'
p72
aS'outLFNDirBase'
p73
atRp74
sg20
g35
sg71
S'global'
p75
sg21
(dp76
sg72
I01
sg27
g15
((ltRp77
sg73
S'/store/user/jhchoi/'
p78
sg30
Nsg70
I00
sbsg34
g3
(g9
g5
NtRp79
(dp80
g12
I00
sg13
S''
sg14
g15
((lp81
S'psetName'
p82
aS'pluginName'
p83
aS'maxMemoryMB'
p84
atRp85
sg20
g34
sg21
(dp86
sg83
S'Analysis'
p87
sg27
g15
((ltRp88
sg82
S'ISR_GEN_Ntupler_electron.py'
p89
sg30
Nsg84
I4000
sbsbsS'voGroup'
p90
S''
sS'Server'
p91
S'cmsweb.cern.ch'
p92
sS'instance'
p93
S'prod'
p94
sS'RequestName'
p95
V180325_164429:jhchoi_crab_crab_ISR_GEN_Ntupler_10to50_electron_v2
p96
sS'voRole'
p97
S'NULL'
p98
sS'Port'
p99
S''
s.