(dp1
S'OriginalConfig'
p2
ccopy_reg
_reconstructor
p3
(cWMCore.Configuration
Configuration
p4
c__builtin__
object
p5
NtRp6
(dp7
S'Site'
p8
g3
(cWMCore.Configuration
ConfigSection
p9
g5
NtRp10
(dp11
S'_internal_skipChecks'
p12
I00
sS'_internal_documentation'
p13
S''
sS'_internal_settings'
p14
c__builtin__
set
p15
((lp16
S'whitelist'
p17
aS'storageSite'
p18
atRp19
sS'_internal_name'
p20
g8
sS'_internal_docstrings'
p21
(dp22
sS'_internal_children'
p23
g15
((ltRp24
sg18
S'T2_KR_KNU'
p25
sS'_internal_parent_ref'
p26
Nsg17
(lp27
g25
asbsS'_internal_sections'
p28
(lp29
S'General'
p30
aS'JobType'
p31
aS'Data'
p32
ag8
aS'User'
p33
aS'Debug'
p34
asg30
g3
(g9
g5
NtRp35
(dp36
g12
I00
sg13
S''
sg14
g15
((lp37
S'workArea'
p38
aS'requestName'
p39
atRp40
sg20
g30
sg21
(dp41
sg23
g15
((ltRp42
sg39
S'crab_ISR_GEN_Ntupler_50plus_electron_status2223_v2'
p43
sg26
Nsg38
S'crab_projects'
p44
sbsS'_internal_webapps'
p45
(lp46
sg33
g3
(g9
g5
NtRp47
(dp48
g12
I00
sg13
S''
sg14
g15
((ltRp49
sg20
g33
sg21
(dp50
sg23
g15
((ltRp51
sg26
NsbsS'_internal_components'
p52
(lp53
sg34
g3
(g9
g5
NtRp54
(dp55
g12
I00
sg13
S''
sg14
g15
((ltRp56
sg20
g34
sg21
(dp57
sg23
g15
((ltRp58
sg26
Nsbsg32
g3
(g9
g5
NtRp59
(dp60
S'inputDataset'
p61
S'/DYJetsToLL_M-50_TuneCUETP8M1_13TeV-amcatnloFXFX-pythia8/RunIISummer15GS-MCRUN2_71_V1-v1/GEN-SIM'
p62
sg12
I00
sS'splitting'
p63
S'LumiBased'
p64
sS'unitsPerJob'
p65
I20
sg13
S''
sg14
g15
((lp66
g61
aS'publication'
p67
ag65
aS'inputDBS'
p68
ag63
aS'useParent'
p69
aS'outLFNDirBase'
p70
atRp71
sg20
g32
sg68
S'global'
p72
sg21
(dp73
sg69
I01
sg23
g15
((ltRp74
sg70
S'/store/user/jhchoi/'
p75
sg26
Nsg67
I00
sbsg31
g3
(g9
g5
NtRp76
(dp77
g12
I00
sg13
S''
sg14
g15
((lp78
S'psetName'
p79
aS'pluginName'
p80
aS'maxMemoryMB'
p81
atRp82
sg20
g31
sg21
(dp83
sg80
S'Analysis'
p84
sg23
g15
((ltRp85
sg79
S'ISR_GEN_Ntupler_electron_status2223.py'
p86
sg26
Nsg81
I4000
sbsbsS'voGroup'
p87
S''
sS'Server'
p88
S'cmsweb.cern.ch'
p89
sS'instance'
p90
S'prod'
p91
sS'RequestName'
p92
V180330_093655:jhchoi_crab_crab_ISR_GEN_Ntupler_50plus_electron_status2223_v2
p93
sS'voRole'
p94
S'NULL'
p95
sS'Port'
p96
S''
s.